(lp0
V000
p1
aV01zccixzin
p2
aV024045138
p3
aV024069500
p4
aV039879999
p5
aV040
p6
aV04023261166
p7
aV04023555005
p8
aV04024064532
p9
aV04024600789
p10
aV04027852435
p11
aV04027853408
p12
aV04027854771
p13
aV04064579998
p14
aV0406711514
p15
aV04067120218
p16
aV04067369999
p17
aV042640575
p18
aV043400200
p19
aV049640328
p20
aV064512143
p21
aV066632381
p22
aV07961907766
p23
aV08096369999
p24
aV08985329528
p25
aV08plondcrd
p26
aV09246373536
p27
aV09391351543
p28
aV09440379926
p29
aV09440479926
p30
aV09676595836
p31
aV09849004207
p32
aV09963857749
p33
aV09985260000
p34
aV0b7byqj2rh
p35
aV0bgtafdgzi
p36
aV0ca4687poz
p37
aV0cijkpxa
p38
aV0dlwwtsgxo
p39
aV0epljnnwrl
p40
aV0gkcvlayzk
p41
aV0glbhthv9h
p42
aV0gpdyzlm_do
p43
aV0hicomrvuw
p44
aV0okofo8flg
p45
aV0ozsru5z0c
p46
aV0rpenteucs
p47
aV0rt40mtjku
p48
aV0rzidstl2o
p49
aV0v4txvkhhf
p50
aV0xmgqgzusk
p51
aV0zbnuurucv
p52
aV0zbspfxt5v
p53
aV100
p54
aV10151726019406521
p55
aV1015308
p56
aV1015329
p57
aV1015510
p58
aV1015602
p59
aV1015666
p60
aV1016020
p61
aV1016402
p62
aV1016536
p63
aV1077718
p64
aV1077759
p65
aV1078496
p66
aV1078504
p67
aV1078672
p68
aV10l
p69
aV1156191
p70
aV1156302
p71
aV1156317
p72
aV117
p73
aV119
p74
aV124595444386998
p75
aV12663
p76
aV127
p77
aV130003
p78
aV130221
p79
aV130221_hyderabad_blast_pix_ml
p80
aV130479497125359
p81
aV135631428
p82
aV139259
p83
aV139327
p84
aV1413545450
p85
aV1413545582
p86
aV1413545656
p87
aV1413545779
p88
aV1413546012
p89
aV1413546022
p90
aV1413546050
p91
aV1413546122
p92
aV1413546128
p93
aV1413546553
p94
aV1413546896
p95
aV1413546930
p96
aV1413547184
p97
aV1413547304
p98
aV145947
p99
aV14691
p100
aV152450
p101
aV157015077643522
p102
aV15731
p103
aV15851
p104
aV15856
p105
aV1608401
p106
aV1608574
p107
aV16the
p108
aV1802878
p109
aV1802972
p110
aV1803082
p111
aV1803452
p112
aV18612412
p113
aV18612887
p114
aV18613801
p115
aV18618090
p116
aV18619866
p117
aV18620573
p118
aV18622398
p119
aV18624726
p120
aV18624824
p121
aV18625209
p122
aV18625615
p123
aV18626325
p124
aV18626789
p125
aV18630772
p126
aV18633029
p127
aV18636584
p128
aV18636751
p129
aV18636791
p130
aV18645253
p131
aV18651398
p132
aV18655330
p133
aV1gots5q6xl
p134
aV1kg
p135
aV1kjocjddql
p136
aV1kvrumv9cc
p137
aV1lwaqtbf2x
p138
aV1st
p139
aV1teahdmzaa
p140
aV1vaf384wtb
p141
aV1wp1oomcec
p142
aV1zc2smfaam
p143
aV1zmxw0oaju
p144
aV1zyiikw8l8
p145
aV2003
p146
aV2007
p147
aV2008
p148
aV2010
p149
aV2011
p150
aV2012
p151
aV2013
p152
aV20130221
p153
aV20130222
p154
aV201322114325257831
p155
aV213925142082424
p156
aV21537197
p157
aV21537197sa
p158
aV21537197tweet617932
p159
aV21543498
p160
aV21st
p161
aV24600789
p162
aV246100146
p163
aV24hrs
p164
aV24x7
p165
aV251208
p166
aV251303
p167
aV265726
p168
aV26octctqt8
p169
aV280hnzxyd8
p170
aV298667160258838
p171
aV2cawtcoxku
p172
aV2d2yb307kd
p173
aV2jfnzdvadm
p174
aV2liobkhpyz
p175
aV2pm
p176
aV2rgb9cm1ea
p177
aV2scx4yn4md
p178
aV2udw5ode9v
p179
aV2vfc8cxfnb
p180
aV2wards
p181
aV2weckgjeqt
p182
aV2xfn3gy4zp
p183
aV2zctvw
p184
aV303
p185
aV304589520442118144
p186
aV304609897767632896
p187
aV304644040656306176
p188
aV304663408186384384
p189
aV304664374595964928
p190
aV304839166796111872
p191
aV304891959191945216
p192
aV333875
p193
aV333905
p194
aV333910
p195
aV333925
p196
aV333929
p197
aV333997
p198
aV334018
p199
aV334020
p200
aV334023
p201
aV334035
p202
aV334113
p203
aV334142
p204
aV334207
p205
aV334224
p206
aV334302
p207
aV334328
p208
aV334343
p209
aV334363
p210
aV334529
p211
aV334547
p212
aV334562
p213
aV334631
p214
aV334674
p215
aV334693
p216
aV334720
p217
aV334755
p218
aV334781
p219
aV37221600_1_hyderabad
p220
aV37222641_1_blasts
p221
aV37242265_1_bomb
p222
aV374336
p223
aV37740
p224
aV3877
p225
aV39621
p226
aV39rdlz62ty
p227
aV3aee8yims1
p228
aV3bwmpkfmnq
p229
aV3efqphm2z1
p230
aV3jc1iqfbny
p231
aV3odn25ls1g
p232
aV3rd
p233
aV3w7bvhby9f
p234
aV3w8ykqhauj
p235
aV3wzk0or8fz
p236
aV3zujvtmuep
p237
aV419155498176944
p238
aV43645890095
p239
aV439261022818435
p240
aV450371271701337
p241
aV49526
p242
aV49yemnmx8y
p243
aV4dsndemzul
p244
aV4g53pjkq7n
p245
aV4ipfp43k8o
p246
aV4iwtfh3mnr
p247
aV4jdnv4fzh7
p248
aV4kbfxqxhre
p249
aV4ojgick
p250
aV4opqcybm8e
p251
aV4q1zqutsry
p252
aV4vbblhzqfg
p253
aV4xigzplpjw
p254
aV50003809
p255
aV511050
p256
aV539138246118779
p257
aV5427
p258
aV557356020942757
p259
aV572746722738446
p260
aV578775842135492
p261
aV579267845418241
p262
aV57ctij6tbe
p263
aV5byahujwvy
p264
aV5ccatgnuvf
p265
aV5dkszo48d9
p266
aV5kozf5xui9
p267
aV5l2m83x2xc
p268
aV5l2v7azuic
p269
aV5lsnrebtl3
p270
aV5uen9wlwgk
p271
aV62379
p272
aV634790
p273
aV635111
p274
aV636165
p275
aV637131
p276
aV637296
p277
aV641sdhjy8w
p278
aV6700
p279
aV69cic9hwk5
p280
aV6fe4bci7ao
p281
aV6mmf9kqs4n
p282
aV6o8okpwa4vi
p283
aV6vtlve9hr6
p284
aV6xkmabqgk2
p285
aV78d38f08
p286
aV790537
p287
aV7ef3vgugpw
p288
aV7flwjdcqyp
p289
aV7m5lm1wreo
p290
aV7o758fhrbc
p291
aV7qm814xvq8
p292
aV7qudcllema
p293
aV7qutcgkvvf
p294
aV7wdy6yrwla
p295
aV8150edded7
p296
aV87lmju60if
p297
aV8985329528
p298
aV8c92bd3036
p299
aV8dzghaqpc3
p300
aV8ikon
p301
aV8jv2twvbkn
p302
aV8lqdmxvvdh
p303
aV8n66ctzagi
p304
aV8niepl8d7x
p305
aV8nwxnyijg6
p306
aV8o9fppurle
p307
aV8pm06w35ee
p308
aV8ssvaze690
p309
aV8vqtyszozn
p310
aV8vz3zghtkc
p311
aV8xzumzwhjf
p312
aV919391351543
p313
aV94410e4edb
p314
aV97nsxz9slx
p315
aV9jrdya28xg
p316
aV9km
p317
aV9ndl4s1zma
p318
aV9ttz6drlzn
p319
aV9vj39u0dwk
p320
aV9wb6wbo9e8
p321
aV9y9z9hziro
p322
aV_g_acionb90
p323
aVa0t4cxifq2
p324
aVa5tvgaszj1
p325
aVa5xqylzbxh
p326
aVa5xyk1oj8d
p327
aVa671ipmojj
p328
aVa9m3alds4y
p329
aVaaj
p330
aVaajtak
p331
aVabdul
p332
aVabhishek
p333
aVable
p334
aVabp
p335
aVabpnews
p336
aVabscond
p337
aVaby
p338
aVaby1qumnvi
p339
aVaccord
p340
aVaccount
p341
aVaccountable
p342
aVaccuse
p343
aVact
p344
aVaction
p345
aVactive
p346
aVactivists
p347
aVactors
p348
aVadd
p349
aVaddress
p350
aVadf5osaf3a
p351
aVadjourn
p352
aVadvance
p353
aVadvani
p354
aVadvdanszlr
p355
aVaffairs
p356
aVaffect
p357
aVafghanistan
p358
aVafjal
p359
aVafo5hm5xcw
p360
aVafp
p361
aVafraid
p362
aVafresh
p363
aVaftermath
p364
aVafzal
p365
aVafzalganj
p366
aVafzalguru
p367
aVagencies
p368
aVagency
p369
aVagi
p370
aVaglxq7iw3p
p371
aVaglywjzitq
p372
aVago
p373
aVagony
p374
aVagooddaytodiehard
p375
aVagree
p376
aVagw3db6gmy
p377
aVahead
p378
aVahmed
p379
aVaijoi2twqc
p380
aVaimim
p381
aVair
p382
aVakbaduddin
p383
aVakhilesh
p384
aValas
p385
aValbum
p386
aValert
p387
aValjazeera
p388
aVallege
p389
aVallegedly
p390
aVamberpet
p391
aVambulance
p392
aVammonium
p393
aVamputation
p394
aVanalyse
p395
aVanalysis
p396
aVandhra
p397
aVandhravilas
p398
aVandhrawishesh
p399
aVani_news
p400
aVankmfoubii
p401
aVannounce
p402
aVansari
p403
aVanswer
p404
aVanti
p405
aVanujgurwara
p406
aVanurag
p407
aVapart
p408
aVapartments
p409
aVapherald
p410
aVappal
p411
aVapparently
p412
aVappeal
p413
aVappear
p414
aVappease
p415
aVappeasement
p416
aVapply
p417
aVappoint
p418
aVappreciate
p419
aVapprehend
p420
aVaqlma6sekr
p421
aVaqqxcq8nj6
p422
aVarchive
p423
aVarea
p424
aVareas
p425
aVargumentative
p426
aVarmsgate
p427
aVarnab
p428
aVarrest
p429
aVarrive
p430
aVarrogance
p431
aVarticle
p432
aVarticle1
p433
aVarticle4439367
p434
aVarticle4439965
p435
aVarticle4439968
p436
aVarticle4440032
p437
aVarticle4441909
p438
aVarticle4446049
p439
aVarticle4446320
p440
aVarticleshow
p441
aVartificial
p442
aVarun
p443
aVarx9n4zlxl
p444
aVas8
p445
aVasad
p446
aVasaduddin
p447
aVasbscocyv7
p448
aVasia
p449
aVasianet
p450
aVasid
p451
aVask
p452
aVaskwsluh5x
p453
aVasp
p454
aVaspx
p455
aVaspxerrorpath
p456
aVass
p457
aVassist
p458
aVassistance
p459
aVassume
p460
aVassure
p461
aVat9tzjfdbx
p462
aVatleast
p463
aVats
p464
aVattach
p465
aVattack
p466
aVattention
p467
aVautocorrect
p468
aVautonagar
p469
aVavjnaz8qlj
p470
aVavoid
p471
aVaward
p472
aVaware
p473
aVaway
p474
aVawful
p475
aVaxbwrnco2l
p476
aVaxmdf6a1q7
p477
aVaxz0vnmwpn
p478
aVayeo3ex
p479
aVazad
p480
aVazamgarh
p481
aVb6clsahett
p482
aVb7fufuxfhl
p483
aVb7hmqiit9j
p484
aVb8fvptaimh
p485
aVb8wtbdy17d
p486
aVbaba
p487
aVbad
p488
aVbag
p489
aVbail
p490
aVbalaji
p491
aVbalaks
p492
aVbalance
p493
aVbalm
p494
aVbangalore
p495
aVbank
p496
aVbar
p497
aVbase
p498
aVbasics
p499
aVbastards
p500
aVbasterds
p501
aVbatla
p502
aVbb54815941
p503
aVbbc
p504
aVbd89aiofdf
p505
aVbe8pw4eh8c
p506
aVbear
p507
aVbefo
p508
aVbegin
p509
aVbehave
p510
aVbelieve
p511
aVbenatyvdyy
p512
aVbengal
p513
aVbeptwxoxoz
p514
aVbest
p515
aVbetter
p516
aVbhai
p517
aVbhandar
p518
aVbharatiya
p519
aVbharatpress
p520
aVbharatserials
p521
aVbharose
p522
aVbhatkal
p523
aVbhd5ibzb3d
p524
aVbias
p525
aVbicycle
p526
aVbig
p527
aVbihar
p528
aVbindu
p529
aVbite
p530
aVbjp
p531
aVbjp_president_to_visit_hyderabad_meet_families_of_blast_victims
p532
aVblame
p533
aVblanket
p534
aVblas
p535
aVblast
p536
aVblast_830699
p537
aVblast_in_hyderabad
p538
aVblasts_in_hyderabad_kill_at_least_11_injure_dozens
p539
aVbleak
p540
aVbless
p541
aVblock
p542
aVblog
p543
aVblogspot
p544
aVblood
p545
aVblow
p546
aVblowback
p547
aVbmdbsqiiyw
p548
aVbobdmcirev
p549
aVbody
p550
aVbomb
p551
aVbombay
p552
aVbomber
p553
aVbombers
p554
aVbombspot
p555
aVboodle
p556
aVbook
p557
aVboozeleff
p558
aVborder
p559
aVboss
p560
aVbox
p561
aVboy
p562
aVboys
p563
aVbpujuwh49m
p564
aVbqor3bhico
p565
aVbrag
p566
aVbrave
p567
aVbreak
p568
aVbreakthrough
p569
aVbreitbart
p570
aVbridge
p571
aVbrilliance
p572
aVbroqfaeqxb
p573
aVbrousers
p574
aVbuck
p575
aVbull
p576
aVbup1igiuaq
p577
aVbureau
p578
aVburst
p579
aVbus
p580
aVbusiest
p581
aVbusiness
p582
aVbust
p583
aVbusy
p584
aVbuyefqc65b
p585
aVbuzz
p586
aVbvdkqpcl2x
p587
aVbvexikf6zq
p588
aVbvuz80f4iw
p589
aVbxgcpwp8ab
p590
aVbzmldbhxlp
p591
aVc2ad8nynui
p592
aVc3faun1cpv
p593
aVc5n5ry
p594
aVc85df6kans
p595
aVc9wq0lce3t
p596
aVcallous
p597
aVcalm
p598
aVcamera
p599
aVcamera_830995
p600
aVcamp
p601
aVcampaign
p602
aVcancer
p603
aVcapable
p604
aVcapital
p605
aVcapture
p606
aVcare
p607
aVcareful
p608
aVcarry
p609
aVcars
p610
aVcartoon
p611
aVcase
p612
aVcasual
p613
aVcasually
p614
aVcasualties
p615
aVcatch
p616
aVcause
p617
aVcbi
p618
aVcbmrcf00va
p619
aVcctv
p620
aVcctvs
p621
aVcdv660efjp
p622
aVce2su6msdn
p623
aVcelebrate
p624
aVcell
p625
aVcellphone
p626
aVcent
p627
aVcenteral
p628
aVcentral
p629
aVcentre
p630
aVcertain
p631
aVcesrqtdgdq
p632
aVcezkcfst9a
p633
aVch1vage6k8
p634
aVch9
p635
aVchallenge
p636
aVchance
p637
aVchandrababunaiduk
p638
aVchange
p639
aVchannel
p640
aVchannelnewsasia
p641
aVchaos
p642
aVchapter
p643
aVchar
p644
aVcharge
p645
aVcharminar
p646
aVchat
p647
aVcheat
p648
aVcheck
p649
aVchhaprawala
p650
aVchidambaram
p651
aVchief
p652
aVchild
p653
aVchintan
p654
aVchiranjeevi
p655
aVchoose
p656
aVchopperscam
p657
aVchunk
p658
aVciam9gduwg
p659
aVcinema
p660
aVcinemas
p661
aVcities
p662
aVcitizen
p663
aVcitizens
p664
aVcity
p665
aVcivilian
p666
aVckzeqtodm1
p667
aVclaim
p668
aVclass
p669
aVclear
p670
aVclick
p671
aVclimb
p672
aVclose
p673
aVcloud
p674
aVclue
p675
aVclur3tktpa
p676
aVcm2og0j1v1
p677
aVcmipyue42t
p678
aVcms
p679
aVcnn
p680
aVcnw9corifa
p681
aVco4xnsgrty
p682
aVcollapse
p683
aVcolleagues
p684
aVcolor
p685
aVcom
p686
aVcome
p687
aVcomfort
p688
aVcommand
p689
aVcommandos
p690
aVcomment
p691
aVcommercial
p692
aVcommissioner
p693
aVcommissioner_831078
p694
aVcommunal
p695
aVcommunalise
p696
aVcompassion
p697
aVcompensate
p698
aVcompensation
p699
aVcomplete
p700
aVcompletely
p701
aVconcentrate
p702
aVconcern
p703
aVcondemn
p704
aVcondole
p705
aVcondolence
p706
aVcondolences
p707
aVcondom
p708
aVconduct
p709
aVconfidence
p710
aVconfirm
p711
aVconflict
p712
aVconflictbase
p713
aVcong
p714
aVcongrates
p715
aVcongreesi
p716
aVcongress
p717
aVcongressi
p718
aVcongresss
p719
aVconsider
p720
aVconsolidate
p721
aVconspiracy
p722
aVconstantly
p723
aVconstitute
p724
aVcontact
p725
aVcontent
p726
aVcontinue
p727
aVcontrol
p728
aVconvey
p729
aVconvict
p730
aVcop
p731
aVcope
p732
aVcorp
p733
aVcouncil
p734
aVcourage
p735
aVcourse
p736
aVcover
p737
aVcowardice
p738
aVcowardly
p739
aVcowards
p740
aVcpxpo2g7i2
p741
aVcqsz5uikix
p742
aVcrack
p743
aVcray
p744
aVcreate
p745
aVcricket
p746
aVcriminals
p747
aVcritical
p748
aVcriticise
p749
aVcriticize
p750
aVcross
p751
aVcrowd
p752
aVcrowde
p753
aVcrucial
p754
aVctizens
p755
aVculpable
p756
aVculprit
p757
aVculprits
p758
aVcup
p759
aVcure
p760
aVcurl
p761
aVcurrent
p762
aVcurrentnews
p763
aVcurse
p764
aVcut
p765
aVcuwf00ninq
p766
aVcycle
p767
aVcylinder
p768
aVcylinders
p769
aVczl3qh2uqq
p770
aVczxrn3figa
p771
aVd0q9ejdue9
p772
aVd3ihl92pse
p773
aVd8vgcn78cj
p774
aVd8xtmuhb5d
p775
aVd9oc0yviwp
p776
aVda007728c7
p777
aVdad
p778
aVdailies
p779
aVdaily
p780
aVdamage
p781
aVdamn
p782
aVdan
p783
aVdarbhanga
p784
aVdarkness
p785
aVdastardly
p786
aVdate
p787
aVdattatreya
p788
aVdaughter
p789
aVday
p790
aVdayandnightnews
p791
aVdays
p792
aVdaze
p793
aVdb2nki4tvr
p794
aVdbv
p795
aVdc9fgdoq2h
p796
aVdead
p797
aVdead_830672
p798
aVdeadly
p799
aVdeal
p800
aVdear
p801
aVdeath
p802
aVdeaths
p803
aVdecades
p804
aVdecibel
p805
aVdecide
p806
aVdecision
p807
aVdeclare
p808
aVdeep
p809
aVdeeply
p810
aVdefeat
p811
aVdefy
p812
aVdegrstjg35
p813
aVdehumanise
p814
aVdelegate
p815
aVdelhi
p816
aVdelhi24x7
p817
aVdemand
p818
aVdemonstrate
p819
aVdenounce
p820
aVdepend
p821
aVdeqse72mvu
p822
aVdesh
p823
aVdespite
p824
aVdestrying
p825
aVdetain
p826
aVdeunmdmhuf
p827
aVdevelopment
p828
aVdevelopments
p829
aVdevice
p830
aVdevices
p831
aVdevil
p832
aVdfrxw46tj4
p833
aVdgp
p834
aVdgqj
p835
aVdhaan0tfav
p836
aVdhanalaxmi
p837
aVdhsluxjyb3
p838
aVdickhead
p839
aVdidn
p840
aVdie
p841
aVdiffuse
p842
aVdig
p843
aVdigest
p844
aVdilsukh
p845
aVdilsukhnagar
p846
aVdilsuknagar
p847
aVdilsuknager
p848
aVdin
p849
aVdinesh
p850
aVdiqdz8w3aa
p851
aVdisable
p852
aVdiscuss
p853
aVdiscussion
p854
aVdisease
p855
aVdisgust
p856
aVdismis
p857
aVdismiss
p858
aVdispatch
p859
aVdisposal
p860
aVdistrict
p861
aVdisturb
p862
aVdivide
p863
aVdll7gzdlia
p864
aVdllsukhnagar
p865
aVdlvr
p866
aVdnaindia
p867
aVdoc
p868
aVdoctor
p869
aVdoesnt
p870
aVdomination
p871
aVdon
p872
aVdonate
p873
aVdonation
p874
aVdonors
p875
aVdont
p876
aVdose
p877
aVdouble
p878
aVdoubt
p879
aVdozens
p880
aVdp11xbdt8n
p881
aVdraft
p882
aVdraw
p883
aVdream
p884
aVdrop
p885
aVdrtl2msg1d
p886
aVdsgtnbel3m
p887
aVdsp9tewp0s
p888
aVdt0tcd9gbt
p889
aVdtn
p890
aVdua
p891
aVdual
p892
aVdukkan
p893
aVdy0y5jczk8
p894
aVe07s2snn0h
p895
aVe0ofgbf2ic
p896
aVe3rfy8bqao
p897
aVe85vk2qqhb
p898
aVe9ghuihbzu
p899
aVeager
p900
aVeas
p901
aVeat
p902
aVebop
p903
aVebsy0vbefz
p904
aVece
p905
aVeconomic
p906
aVeconomictimes
p907
aVee4pmd5hju
p908
aVeeaumdtw1g
p909
aVeeobe7d7ba
p910
aVegiqb4oxgm
p911
aVeguiqk4wfz
p912
aVeivz6zanja
p913
aVeixwa0e9jx
p914
aVekg3ttz2vn
p915
aVekpzxelswj
p916
aVelements
p917
aVelite
p918
aVelj4gt23fg
p919
aVeloexa9ips
p920
aVelp4v5df9j
p921
aVemail
p922
aVembargo
p923
aVemerge
p924
aVemergency
p925
aVemployees
p926
aVen41zoswne
p927
aVencounter
p928
aVend
p929
aVenemy
p930
aVengage
p931
aVenoalp7iqo
p932
aVentry
p933
aVeq6yzbn1ra
p934
aVeqcga7th7m
p935
aVeqgxtdtzdi
p936
aVeqoygpmjdh
p937
aVeqqax1tazm
p938
aVerblyqtioy
p939
aVerupt
p940
aVescape
p941
aVesj4qvaqqr
p942
aVestablishments
p943
aVethics
p944
aVevent
p945
aVevents
p946
aVevhwme4zhlo
p947
aVevidence
p948
aVevohbblz8d
p949
aVevqaoxe37k
p950
aVewallstreeter
p951
aVex4aliuswn
p952
aVexact
p953
aVexceptionally
p954
aVexclusive
p955
aVexecute
p956
aVexecution
p957
aVexlb17aluh
p958
aVexotics
p959
aVexpect
p960
aVexpectation
p961
aVexpert
p962
aVexperts
p963
aVexplanation
p964
aVexplode
p965
aVexplosio
p966
aVexplosion
p967
aVexplosions
p968
aVexplosive
p969
aVexpose
p970
aVexpres
p971
aVexpress
p972
aVexpresshyderabad
p973
aVextension
p974
aVextremely
p975
aVextremists
p976
aVexude
p977
aVey9lhdyhya
p978
aVeye
p979
aVeyewitness
p980
aVeywygkgegn
p981
aVf0brk3slq8
p982
aVf31iaw7l5p
p983
aVf69d79d196
p984
aVf6a28qncfy
p985
aVf7r6pjgecj
p986
aVface
p987
aVfacebook
p988
aVfaduwmgzjr
p989
aVfail
p990
aVfailure
p991
aVfairness
p992
aVfake
p993
aVfamilies
p994
aVfamily
p995
aVfamous
p996
aVfanaticism
p997
aVfanatics
p998
aVfar
p999
aVfarida
p1000
aVfast
p1001
aVfateful
p1002
aVfather
p1003
aVfavorite
p1004
aVfavourite
p1005
aVfbid
p1006
aVfcsarqkdn0
p1007
aVfdziljzy73
p1008
aVfear
p1009
aVfeature
p1010
aVfeb
p1011
aVfebruary
p1012
aVfee
p1013
aVfeel
p1014
aVfell
p1015
aVfexzz9sqzv
p1016
aVfgjjokqhkq
p1017
aVfi8zwwwcda
p1018
aVfigure
p1019
aVfijb6689jt
p1020
aVfile
p1021
aVfilter
p1022
aVfinger
p1023
aVfinish
p1024
aVfirstpost
p1025
aVfishy
p1026
aVfje2bdfvg2
p1027
aVfk02tmdlzl
p1028
aVfkitomiej8
p1029
aVflak
p1030
aVflash
p1031
aVfldcrvs5ym8
p1032
aVflesh
p1033
aVfly
p1034
aVfmz3vefzdf
p1035
aVfnuqhg8xwi
p1036
aVfof5on0l0e
p1037
aVfolks
p1038
aVfollow
p1039
aVfollower
p1040
aVfollowin
p1041
aVfonstquoqz
p1042
aVfoot
p1043
aVfootage
p1044
aVfootieparadise
p1045
aVfopfsz7a8p
p1046
aVforce
p1047
aVforeign
p1048
aVforget
p1049
aVfoswiftono
p1050
aVfounder
p1051
aVfqjteh8iy7
p1052
aVfqrsdzfidl
p1053
aVfree
p1054
aVfrida
p1055
aVfriday
p1056
aVfriend
p1057
aVfriendly
p1058
aVfriends
p1059
aVfrighten
p1060
aVfrm
p1061
aVfrnhhddrmm
p1062
aVfuc7dshwru
p1063
aVfuck
p1064
aVfugbxxhioo
p1065
aVfuiststtgm
p1066
aVfunction
p1067
aVfunctional
p1068
aVfund
p1069
aVfuo8t5eapc
p1070
aVfuture
p1071
aVfvoesbsf02
p1072
aVfvw7tpzh3e
p1073
aVfylkzghrsm
p1074
aVfzhgwmid4u
p1075
aVg1xqcl8md1
p1076
aVgah4hksszv
p1077
aVgame
p1078
aVgandhi
p1079
aVgas
p1080
aVgawgigkz2v
p1081
aVgc6swu1e0v
p1082
aVgcqkshhzag
p1083
aVgeneral
p1084
aVgeneric
p1085
aVgeosurf
p1086
aVgetye50e9w
p1087
aVggefewhm3v
p1088
aVggvthvnoex
p1089
aVghantaengineering0
p1090
aVghose
p1091
aVghowdrsney
p1092
aVghxai96sq7
p1093
aVgi82eau2m3
p1094
aVgi9w888srn
p1095
aVgilani
p1096
aVglass
p1097
aVgljmbamljd
p1098
aVglobal
p1099
aVglobalpost
p1100
aVglzv8hyq3z
p1101
aVgnmnwzvo3y
p1102
aVgoac300ll8
p1103
aVgod
p1104
aVgokul
p1105
aVgonna
p1106
aVgood
p1107
aVgoogle
p1108
aVgopmdlbtzk
p1109
aVgovernment
p1110
aVgovt
p1111
aVgpsl0qf47r
p1112
aVgr17vmlchm
p1113
aVgraphic
p1114
aVgreat
p1115
aVgreen
p1116
aVgrevience
p1117
aVgrief
p1118
aVgrieve
p1119
aVgrill
p1120
aVgroup
p1121
aVgsn
p1122
aVgtdv2uohuj
p1123
aVgtop
p1124
aVguard
p1125
aVguilty
p1126
aVgujarat
p1127
aVgujrat
p1128
aVgundezxvz4
p1129
aVgupta
p1130
aVguru
p1131
aVgurus
p1132
aVgut
p1133
aVguy
p1134
aVgvt
p1135
aVgvwirdh85z
p1136
aVgzdkuyw4yg
p1137
aVh2d2qxjyyo
p1138
aVh3sx1cz3nd
p1139
aVh6myeohtbk
p1140
aVh6ukxywv5r
p1141
aVhafiz
p1142
aVhale
p1143
aVhalf
p1144
aVhalls
p1145
aVhamid
p1146
aVhand
p1147
aVhandiwork
p1148
aVhang
p1149
aVhanuman
p1150
aVhappen
p1151
aVhappiness
p1152
aVharassment
p1153
aVharen
p1154
aVhariprasad
p1155
aVhashtag
p1156
aVhat
p1157
aVhaunt
p1158
aVhav
p1159
aVhawkers
p1160
aVhb4avkymns
p1161
aVhbb7l6ozrl
p1162
aVhbln7qdazx
p1163
aVhd7m7nzjoc
p1164
aVhdxosjkeun
p1165
aVhead
p1166
aVheadline
p1167
aVheadway
p1168
aVhear
p1169
aVheart
p1170
aVheartfelt
p1171
aVhearty
p1172
aVheavily
p1173
aVhell
p1174
aVhello
p1175
aVhelp
p1176
aVhelpline
p1177
aVhelplines
p1178
aVhfee2xjpfm
p1179
aVhg22jzyot5
p1180
aVhhxj1agiiu
p1181
aVhide
p1182
aVhidsn8s22j
p1183
aVhigh
p1184
aVhill
p1185
aVhind
p1186
aVhinder
p1187
aVhindi
p1188
aVhindu
p1189
aVhindu15
p1190
aVhinduhyderabad
p1191
aVhindujagruti
p1192
aVhindus
p1193
aVhindushinde
p1194
aVhindustan
p1195
aVhindustantimes
p1196
aVhindutva
p1197
aVhint
p1198
aVhire
p1199
aVhit
p1200
aVhllwbythub
p1201
aVhlpzmnajf3
p1202
aVho63igw1ee
p1203
aVhold
p1204
aVhome
p1205
aVhomeminister
p1206
aVhomepage
p1207
aVhop
p1208
aVhope
p1209
aVhopeful
p1210
aVhorrible
p1211
aVhorrify
p1212
aVhorryfying
p1213
aVhospital
p1214
aVhospitals
p1215
aVhospitals_dilsukh
p1216
aVhou
p1217
aVhour
p1218
aVhours
p1219
aVhouse
p1220
aVhphp0yiust
p1221
aVhrudayalaya
p1222
aVhtm
p1223
aVhtml
p1224
aVhtqvnrvoxs
p1225
aVhttp
p1226
aVhttps
p1227
aVhub
p1228
aVhuge
p1229
aVhuji
p1230
aVhuman
p1231
aVhumanitariannews
p1232
aVhunt
p1233
aVhurt
p1234
aVhvwig6flbn
p1235
aVhwsz7mqf9p
p1236
aVhy86muu8st
p1237
aVhyd
p1238
aVhyde
p1239
aVhyder
p1240
aVhydera
p1241
aVhyderaba
p1242
aVhyderabad
p1243
aVhyderabad_bn_1361454857369
p1244
aVhyderabadblast
p1245
aVhyderabadblasts
p1246
aVhyderabadis
p1247
aVhyderadab
p1248
aVhyderbad
p1249
aVhzklrhpqgl
p1250
aVi2xfsnggds
p1251
aVibevolvvar
p1252
aVibn
p1253
aVibnlive
p1254
aVibnlivegovt
p1255
aVibtl
p1256
aVicansavelife
p1257
aVideal
p1258
aVidentify
p1259
aVidusbre91l05z20130222
p1260
aVied
p1261
aVieds
p1262
aVignorant
p1263
aVignore
p1264
aVihawnz63s6
p1265
aVihpxbsexfy
p1266
aVihrc2xatfs
p1267
aViipm
p1268
aVij87fkko5o
p1269
aVik3ggkfafw
p1270
aVikagnvj9s5
p1271
aVikssn2xgyi
p1272
aVileqaawbew
p1273
aVimage
p1274
aVimam
p1275
aVimmk6bnbtd
p1276
aVimp
p1277
aVimport
p1278
aVimportant
p1279
aVimpotent
p1280
aVimprovise
p1281
aVimran
p1282
aVincidents
p1283
aVincompetence
p1284
aVincrease
p1285
aVincreasingly
p1286
aVindia
p1287
aVindiagot
p1288
aVindiahyderabad
p1289
aVindian
p1290
aVindianexpress
p1291
aVindians
p1292
aVindias
p1293
aVindiasectionpage
p1294
aVindiatimes
p1295
aVindiatoday
p1296
aVindirectly
p1297
aVindividuals
p1298
aVindo
p1299
aVindustrialists
p1300
aVindvsaus
p1301
aVinefficient
p1302
aVinept
p1303
aVinflation
p1304
aVinfo
p1305
aVinform
p1306
aVinformation
p1307
aVinitial
p1308
aVinjure
p1309
aVinjured_828890
p1310
aVinjuries
p1311
aVinnocents
p1312
aVinput
p1313
aVinspect
p1314
aVinstagram
p1315
aVinstal
p1316
aVinstead
p1317
aVintel
p1318
aVintelligence
p1319
aVintensity
p1320
aVinterior
p1321
aVinterview
p1322
aVintoday
p1323
aVinvest
p1324
aVinvestigate
p1325
aVinvestigation
p1326
aVinvestigations
p1327
aVinvestigators
p1328
aVinvite
p1329
aVinvolve
p1330
aVinvolvement
p1331
aVir7cv52twv
p1332
aVirani
p1333
aVisi
p1334
aVislam
p1335
aVislamabad
p1336
aVislamic
p1337
aVislamist
p1338
aVisn
p1339
aVissue
p1340
aVitmajxjnns
p1341
aVitoo
p1342
aVituono3y8n
p1343
aViuoombw1hc
p1344
aViyr5uuicfx
p1345
aVizmu8zsflk
p1346
aVizuovbu4ke
p1347
aVj3mgnxib2m
p1348
aVj6swucylip
p1349
aVj7g0a1xvi7
p1350
aVjagan
p1351
aVjail
p1352
aVjaipur
p1353
aVjaitely
p1354
aVjam
p1355
aVjanata
p1356
aVjav5pxuudm
p1357
aVjdu
p1358
aVjeaxaepcte
p1359
aVjeedimetla
p1360
aVjehad
p1361
aVjharkhand
p1362
aVjhthjtciwo
p1363
aVjihadi
p1364
aVjihadis
p1365
aVjktgdxhooc
p1366
aVjob
p1367
aVjockey
p1368
aVjohsbhmw3a
p1369
aVjoin
p1370
aVjoint
p1371
aVjournal
p1372
aVjournal_
p1373
aVjournalat
p1374
aVjournalism
p1375
aVjpgpimyxkc
p1376
aVjrfauhnkzh
p1377
aVjsv4pzpmce
p1378
aVjswp52ghap
p1379
aVjtdb5cpzla
p1380
aVjubalee
p1381
aVjuly
p1382
aVjump
p1383
aVjust
p1384
aVjustdial
p1385
aVjvfjs4of5e
p1386
aVjwvhygsc4n
p1387
aVjx24oxn1hb
p1388
aVjyfoy3buqj
p1389
aVjz8a5n3ei8
p1390
aVk1n0fnfdek
p1391
aVk4dvx5jpey
p1392
aVk4qn47bipf
p1393
aVkaafir
p1394
aVkabcjqbex9
p1395
aVkafila
p1396
aVkainazzfvm
p1397
aVkamineni
p1398
aVkarnataka
p1399
aVkasab
p1400
aVkaumudi
p1401
aVkb3p7d6kr8
p1402
aVkbb0uybeaz
p1403
aVkbfwow3vdv
p1404
aVkbpgfiqunh
p1405
aVkbpqjmlz9q
p1406
aVkcmlmxwg58
p1407
aVkd9zfik9yf
p1408
aVkde1q5krje
p1409
aVkdhalcwyhb
p1410
aVkdtaknazxs
p1411
aVkehzmkmbly
p1412
aVkerala
p1413
aVkerry
p1414
aVkey
p1415
aVkf85fwgfj1
p1416
aVkfn1t2a91a
p1417
aVkg3x7mq9ea
p1418
aVkgedusei8r
p1419
aVkgpfg26l3a
p1420
aVkh9eo1qm74
p1421
aVkhaleej
p1422
aVkhan
p1423
aVkhasab
p1424
aVkhurshid
p1425
aVkid
p1426
aVkill
p1427
aVkin
p1428
aVkiran
p1429
aVkiranreddy
p1430
aVkjcfum6krh
p1431
aVkkdth7fzyd
p1432
aVklw6ooabjn
p1433
aVkneqolli0j
p1434
aVknow
p1435
aVkolkata
p1436
aVkonark
p1437
aVkop29k7lka
p1438
aVkorean
p1439
aVkothapet
p1440
aVkp5l1lwqse
p1441
aVkq98j5zcqp
p1442
aVkr4tuwfaab
p1443
aVkrbmmcf44v
p1444
aVksgr6mdjk6
p1445
aVksxr7epkcv
p1446
aVktubrptjgg
p1447
aVktumt70mss
p1448
aVktznqqfyfd
p1449
aVkumar
p1450
aVkvartha
p1451
aVkxbt0hfkih
p1452
aVkyectrwjet
p1453
aVkzeymje0m3x8odyyfhx8fhx8mti
p1454
aVl0xe6ngbyw
p1455
aVl35djummfy
p1456
aVl3r1nsfkoq
p1457
aVlacs
p1458
aVlahore
p1459
aVlakh
p1460
aVlakhs
p1461
aVland
p1462
aVlapse
p1463
aVlargest
p1464
aVlashkar
p1465
aVlate
p1466
aVlater
p1467
aVlatest
p1468
aVlaunch
p1469
aVlavtj92v61
p1470
aVlaw
p1471
aVlawyer
p1472
aVlay
p1473
aVlblzyrs8cs
p1474
aVlciywcjjzj
p1475
aVlczco7xtgz
p1476
aVle3vyvfymy
p1477
aVlead
p1478
aVleader
p1479
aVleaders
p1480
aVleak
p1481
aVlearn
p1482
aVleave
p1483
aVleg
p1484
aVlegs
p1485
aVleniency
p1486
aVlessons
p1487
aVlet
p1488
aVlevel
p1489
aVlfkym3yho0
p1490
aVlg5wkyusgo
p1491
aVlgldsaovnd
p1492
aVliberals
p1493
aVlife
p1494
aVlike
p1495
aVlikely
p1496
aVlimp
p1497
aVline
p1498
aVlink
p1499
aVlinkage
p1500
aVliooh
p1501
aVlist
p1502
aVliterally
p1503
aVlive
p1504
aVliveblog
p1505
aVljf0bwuswg
p1506
aVljkqe
p1507
aVlkukcaz0xf
p1508
aVllx66lroml
p1509
aVlmmc6scb9v
p1510
aVlocal
p1511
aVlocals
p1512
aVlocation
p1513
aVlodge
p1514
aVlok
p1515
aVlol
p1516
aVlollypop
p1517
aVlong
p1518
aVlook
p1519
aVloon
p1520
aVlose
p1521
aVloss
p1522
aVlot
p1523
aVloud
p1524
aVlousy
p1525
aVlove
p1526
aVloxvweksvm
p1527
aVlpeoudyqkq
p1528
aVlpupylpnqd
p1529
aVlsx61qvqrq
p1530
aVlts
p1531
aVlucky
p1532
aVlumbini
p1533
aVlunacy
p1534
aVlunch
p1535
aVluoqpnofye
p1536
aVlwzoqe7l3v
p1537
aVlxowpiy8yp
p1538
aVm3l5w286cj
p1539
aVmadam
p1540
aVmadness
p1541
aVmaha
p1542
aVmahakumbh
p1543
aVmahalakshmi
p1544
aVmahrajganj
p1545
aVmail
p1546
aVmain
p1547
aVmaintenance
p1548
aVmajor
p1549
aVmake
p1550
aVmaker
p1551
aVmalakpet
p1552
aVmallocs
p1553
aVman
p1554
aVmanage
p1555
aVmanagement
p1556
aVmandir
p1557
aVmangle
p1558
aVmanhunt
p1559
aVmanish
p1560
aVmanmohan
p1561
aVmanufacture
p1562
aVmanzar
p1563
aVmap
p1564
aVmaqbool
p1565
aVmarket
p1566
aVmarriage
p1567
aVmarry
p1568
aVmasjid
p1569
aVmassive
p1570
aVmastermind
p1571
aVmatter
p1572
aVmaulana
p1573
aVmaximum
p1574
aVmccl0kq6ej
p1575
aVmcnufv0j7x
p1576
aVmcwwokctni
p1577
aVmdamoaz9kt
p1578
aVme14pnthir
p1579
aVmeasure
p1580
aVmeat
p1581
aVmecca
p1582
aVmeccamasjid
p1583
aVmedia
p1584
aVmedical
p1585
aVmeet
p1586
aVmeira
p1587
aVmember
p1588
aVmembers
p1589
aVmen
p1590
aVmental
p1591
aVmention
p1592
aVmer3tdghdg
p1593
aVmercy
p1594
aVmere
p1595
aVmfulfpmdda
p1596
aVmhookwcaol
p1597
aVmid
p1598
aVmilitants
p1599
aVmim
p1600
aVmind
p1601
aVminis
p1602
aVminister
p1603
aVministry
p1604
aVminutes
p1605
aVmirja
p1606
aVmirza
p1607
aVmislead
p1608
aVmiss
p1609
aVmitght
p1610
aVmms0dguade
p1611
aVmobile
p1612
aVmodi
p1613
aVmodule
p1614
aVmoney
p1615
aVmoneycontrol
p1616
aVmonitor
p1617
aVmonths
p1618
aVmoradabad
p1619
aVmorale
p1620
aVmorning
p1621
aVmosque
p1622
aVmother
p1623
aVmotorcycle
p1624
aVmouth
p1625
aVmovement
p1626
aVmovie
p1627
aVmovienews
p1628
aVmovies
p1629
aVmpa
p1630
aVmqm
p1631
aVmrwxheeyyy
p1632
aVmt3agcs1mh
p1633
aVmtfjw4xd85
p1634
aVmuck
p1635
aVmujahideen
p1636
aVmujhahideen
p1637
aVmukherjee
p1638
aVmultimedia
p1639
aVmultiple
p1640
aVmum
p1641
aVmumbai
p1642
aVmuralidhar
p1643
aVmuslim
p1644
aVmuslims
p1645
aVmvpna4f6o1
p1646
aVmvru5sekv3
p1647
aVmxwdbteoqn
p1648
aVmxyquiopi1
p1649
aVn2qhvcztf9
p1650
aVn4dae6q25u
p1651
aVnab
p1652
aVnagar
p1653
aVnagar_830663
p1654
aVnagar_hyderabad
p1655
aVnaidu
p1656
aVnarayana
p1657
aVnarendra
p1658
aVnarrowly
p1659
aVnation
p1660
aVnational
p1661
aVnavzfjkcy2
p1662
aVnckrfqh3df
p1663
aVncp
p1664
aVnctc
p1665
aVndrq0vsbuf
p1666
aVndtv
p1667
aVndtvfeed
p1668
aVndtvhyderabad
p1669
aVndtvpolitical
p1670
aVndtvus
p1671
aVnear
p1672
aVnearest
p1673
aVnearly
p1674
aVnecessary
p1675
aVneed
p1676
aVnepal
p1677
aVnetas
p1678
aVnetwork
p1679
aVnew
p1680
aVnewdelhi
p1681
aVnews
p1682
aVnewsindia
p1683
aVnewsmetro
p1684
aVnf7eyozc7q
p1685
aVnh2xs3ymun
p1686
aVnhyvckknfu
p1687
aVnia
p1688
aVnight
p1689
aVniiaqd2yda
p1690
aVniti
p1691
aVniticentral
p1692
aVnitish
p1693
aVnitrate
p1694
aVnjlthmbr0v
p1695
aVnkheef8bs6
p1696
aVnmgbhvrcxm
p1697
aVnocid2ntip
p1698
aVnon
p1699
aVnonsense
p1700
aVnoon
p1701
aVnormal
p1702
aVnormalcy
p1703
aVnos
p1704
aVnqkjuumve4
p1705
aVnqpqay6vda
p1706
aVnqz9i3fu0v
p1707
aVns_mchannel
p1708
aVns_source
p1709
aVnsg
p1710
aVntv
p1711
aVnumber
p1712
aVnumfqriocp
p1713
aVnuvgujxxsu
p1714
aVnwgapgrzhy
p1715
aVnwok9j9rcd
p1716
aVnwukcxyxea
p1717
aVnxu7zmzsau
p1718
aVnymkll5axko
p1719
aVo6m9pry4fp
p1720
aVo9ivo3rid8
p1721
aVoarrzqb2qh
p1722
aVob0gayvbtt
p1723
aVobject
p1724
aVobou7vgqwq
p1725
aVobtain
p1726
aVoccur
p1727
aVoct
p1728
aVodhggtrpqu
p1729
aVodisha
p1730
aVodx1vproat
p1731
aVof6b6a9v3y
p1732
aVoffer
p1733
aVoffice
p1734
aVofficial
p1735
aVofficially
p1736
aVofficials
p1737
aVofyqnv7lst
p1738
aVogzqzxasma
p1739
aVoii6hx66qr
p1740
aVojzwkzxeuj
p1741
aVokvfnqggyq
p1742
aVokzd6oia5a
p1743
aVol2ahzffu8
p1744
aVold
p1745
aVomar
p1746
aVomini
p1747
aVomni
p1748
aVoneindia
p1749
aVones
p1750
aVonsgr4ahwy
p1751
aVoocg3g56sx
p1752
aVopen
p1753
aVoperation
p1754
aVoperation_830723
p1755
aVoperative
p1756
aVoperatives
p1757
aVoppose
p1758
aVopposition
p1759
aVoptimum
p1760
aVopwocxafoh
p1761
aVoq690bksja
p1762
aVoqgcwjnaas
p1763
aVoqhvjznfnq
p1764
aVoqo3lltavf
p1765
aVorchestrate
p1766
aVorder
p1767
aVorg
p1768
aVorganisations
p1769
aVorganise
p1770
aVorganistn
p1771
aVorganization
p1772
aVorissadiary
p1773
aVosmania
p1774
aVosu6citwt7
p1775
aVotpjp63h5y
p1776
aVoutfit
p1777
aVoutlook
p1778
aVoutlookindia
p1779
aVoutside
p1780
aVovumnites
p1781
aVowaisi
p1782
aVowaisis
p1783
aVowumeji80a
p1784
aVp31lom83b8
p1785
aVp3rvutlgwh
p1786
aVp9oqmnufdp
p1787
aVpacific
p1788
aVpaedophile
p1789
aVpain
p1790
aVpaint
p1791
aVpair
p1792
aVpak
p1793
aVpakistan
p1794
aVpandya
p1795
aVpanic
p1796
aVparamitha
p1797
aVpareendesai
p1798
aVparent
p1799
aVpark
p1800
aVparliament
p1801
aVparty
p1802
aVpasal
p1803
aVpass
p1804
aVpatna
p1805
aVpay
p1806
aVpcgs6mfvlm
p1807
aVpcxdjlgthh
p1808
aVpdiz8jb6bv
p1809
aVpdqhkkoish
p1810
aVpeace
p1811
aVpeacefull
p1812
aVpeacefully
p1813
aVpenalty
p1814
aVpeople
p1815
aVpermanently
p1816
aVperpetrators
p1817
aVperps
p1818
aVperson
p1819
aVpersonally
p1820
aVpersonnel
p1821
aVpersons
p1822
aVpet
p1823
aVpgfbf1oknx
p1824
aVphfqaj38px
p1825
aVphone
p1826
aVphoto
p1827
aVphotogallery
p1828
aVphotos
p1829
aVphp
p1830
aVpic
p1831
aVpick
p1832
aVpics
p1833
aVpicture
p1834
aVpiece
p1835
aVpk8hvyxc7b
p1836
aVpkio2gzd07
p1837
aVplace
p1838
aVplan
p1839
aVplatitudes
p1840
aVplay
p1841
aVplayer
p1842
aVplayers
p1843
aVplaylist
p1844
aVplea
p1845
aVplenty
p1846
aVplmibkzkwm
p1847
aVplunderer
p1848
aVpoetic
p1849
aVpoint
p1850
aVpoison
p1851
aVpolice
p1852
aVpoliceman
p1853
aVpolitical
p1854
aVpoliticians
p1855
aVpoliticise
p1856
aVpoliticize
p1857
aVpolitics
p1858
aVposition
p1859
aVposs
p1860
aVpossible
p1861
aVpost
p1862
aVpostnoon
p1863
aVpour
p1864
aVpowerful
p1865
aVppwuzmxphr
p1866
aVpr1j5lj34n
p1867
aVpractical
p1868
aVpradesh
p1869
aVpragya
p1870
aVpraise
p1871
aVpranab
p1872
aVprashad
p1873
aVpray
p1874
aVprayer
p1875
aVprayers
p1876
aVprd5w7sfzp
p1877
aVpre
p1878
aVprecede
p1879
aVpredict
p1880
aVpreeti
p1881
aVprefer
p1882
aVpregnant
p1883
aVpresent
p1884
aVpreserve
p1885
aVpresident
p1886
aVpress
p1887
aVpresume
p1888
aVprevail
p1889
aVprevent
p1890
aVpreventive
p1891
aVprey
p1892
aVprice
p1893
aVprime
p1894
aVprior
p1895
aVprobe
p1896
aVproblem
p1897
aVprocess
p1898
aVprofessional
p1899
aVproposal
p1900
aVprotect
p1901
aVprotection
p1902
aVprotest
p1903
aVprotesters
p1904
aVprove
p1905
aVprovide
p1906
aVprr0mybemx
p1907
aVpsy2h9av5h
p1908
aVpti
p1909
aVptinews
p1910
aVptxwhakwwh
p1911
aVpublic
p1912
aVpublicrss20
p1913
aVpublish
p1914
aVpuciyshjnc
p1915
aVpunish
p1916
aVpunishment
p1917
aVpurchase
p1918
aVpush
p1919
aVpzsalyn8sw
p1920
aVq23hvp6ugb
p1921
aVq3mnxgiqhr
p1922
aVq7abem1plu
p1923
aVq9aps4gwqx
p1924
aVqdmojtl2ze
p1925
aVqfo8valvof
p1926
aVqgxtyspsqg
p1927
aVqh0dcy7fha
p1928
aVqhah8xqhru0
p1929
aVqiipufp3ek
p1930
aVqit0iray3j
p1931
aVqiwrjy9pyj
p1932
aVqkhzj7lb8n
p1933
aVqlajw8ctit
p1934
aVqlqwoxltwg
p1935
aVqltazxvsg0
p1936
aVqlyqbqjay4
p1937
aVqlztvm5pyi
p1938
aVqmfmiw23yh
p1939
aVqnawlialdp
p1940
aVqo1qqhjon7
p1941
aVqowvtq5hjn
p1942
aVqqnviwjvvk
p1943
aVqrcue8pg4w
p1944
aVqthcfe05r8
p1945
aVquestion
p1946
aVquite
p1947
aVquiz
p1948
aVquote
p1949
aVqveb6n1ky8
p1950
aVqvww8ypzhc
p1951
aVqyirnbczbr
p1952
aVr97hkdjgxi
p1953
aVr9oycan4ju
p1954
aVrace
p1955
aVrahjwjfn7p
p1956
aVrahul
p1957
aVrahulg
p1958
aVrahulji
p1959
aVraid
p1960
aVrailway
p1961
aVraise
p1962
aVrajiv
p1963
aVrajnath
p1964
aVraju
p1965
aVrajya
p1966
aVrajyasabha
p1967
aVram
p1968
aVrangpo
p1969
aVrank
p1970
aVrao
p1971
aVrascal
p1972
aVratan
p1973
aVravi
p1974
aVrcbvimsr
p1975
aVrduvfavvw6
p1976
aVrdwcxmmsse
p1977
aVreach
p1978
aVreaction
p1979
aVread
p1980
aVready
p1981
aVreal
p1982
aVreally
p1983
aVreason
p1984
aVrecce
p1985
aVreceed
p1986
aVrecent
p1987
aVrecover
p1988
aVrecovery
p1989
aVred
p1990
aVreddy
p1991
aVrediff
p1992
aVregions
p1993
aVregister
p1994
aVregret
p1995
aVreign
p1996
aVreiterate
p1997
aVrejoice
p1998
aVrelate
p1999
aVrelease
p2000
aVreligion
p2001
aVreligious
p2002
aVremain
p2003
aVrent
p2004
aVrepeat
p2005
aVreport
p2006
aVreportedly
p2007
aVreporterindia
p2008
aVreporters
p2009
aVrequest
p2010
aVrequire
p2011
aVrequirement
p2012
aVrequirements
p2013
aVrescue
p2014
aVresident
p2015
aVresign
p2016
aVresignation
p2017
aVresponse
p2018
aVresponsibility
p2019
aVresponsible
p2020
aVrest
p2021
aVrestrain
p2022
aVresult
p2023
aVresume
p2024
aVreturn
p2025
aVretweet
p2026
aVreuters
p2027
aVrevenge
p2028
aVrevisit
p2029
aVreward
p2030
aVrfnd4nbvgg
p2031
aVrganwfahiqa
p2032
aVrhi3hajhny
p2033
aVriaz
p2034
aVrich
p2035
aVrid
p2036
aVright
p2037
aVrightnow
p2038
aVriot
p2039
aVrip
p2040
aVripple
p2041
aVrise
p2042
aVriyaz
p2043
aVriyazum
p2044
aVrjfkmgdbjt
p2045
aVrk8ubaydrp
p2046
aVrldt45zsxf
p2047
aVrm3ffxz4vs
p2048
aVrmgs2hww30
p2049
aVrncv07rvty
p2050
aVrnvf4byt4r
p2051
aVroad
p2052
aVroadside
p2053
aVrock
p2054
aVroom
p2055
aVroot
p2056
aVround
p2057
aVroutine
p2058
aVrrbeps0zli
p2059
aVrrylu2mcfs
p2060
aVrs10
p2061
aVrsbdx4bhun
p2062
aVrss
p2063
aVrssfeedback
p2064
aVru60xf3zus
p2065
aVruin
p2066
aVrule
p2067
aVrumor
p2068
aVrumour
p2069
aVrush
p2070
aVrxmmgpu5v8
p2071
aVrz7jeqzuz4
p2072
aVrzdvpyfdxi
p2073
aVrzffqxbbea
p2074
aVs1su3lbas1
p2075
aVs3jmakyyo0
p2076
aVs6idcvwr6b
p2077
aVs8k5tyqddy
p2078
aVsaab
p2079
aVsabha
p2080
aVsad
p2081
aVsadden
p2082
aVsadhvi
p2083
aVsadly
p2084
aVsafe
p2085
aVsafety
p2086
aVsaffron
p2087
aVsagarika
p2088
aVsai
p2089
aVsaibaba
p2090
aVsairam
p2091
aVsak2ndt6rg
p2092
aVsalman
p2093
aVsamuel
p2094
aVsanction
p2095
aVsandymbbs
p2096
aVsangi
p2097
aVsarma
p2098
aVsaturday
p2099
aVsave
p2100
aVsavitha
p2101
aVsaw
p2102
aVsay
p2103
aVsbzgcr7jgi
p2104
aVsc_cid
p2105
aVscale
p2106
aVscan
p2107
aVscanner
p2108
aVscb4hhezll
p2109
aVscene
p2110
aVscore
p2111
aVscreen
p2112
aVsd1y8jefgm
p2113
aVsearch
p2114
aVsecond
p2115
aVsecretary
p2116
aVsecretly
p2117
aVsecular
p2118
aVsecularism
p2119
aVsecunderabad
p2120
aVsecurity
p2121
aVseek
p2122
aVselenga
p2123
aVsend
p2124
aVsenior
p2125
aVsensitive
p2126
aVsensitivity
p2127
aVserial
p2128
aVseries
p2129
aVseriously
p2130
aVservice
p2131
aVset
p2132
aVseven
p2133
aVshadow
p2134
aVshame
p2135
aVshameful
p2136
aVshameless
p2137
aVshankar
p2138
aVshare
p2139
aVsharma
p2140
aVshatter
p2141
aVshed
p2142
aVsheet
p2143
aVshell
p2144
aVshift
p2145
aVshind
p2146
aVshinde
p2147
aVshivar
p2148
aVshock
p2149
aVshockingly
p2150
aVshoot
p2151
aVshop
p2152
aVshopkeepers
p2153
aVshout
p2154
aVshri
p2155
aVshtml
p2156
aVshud
p2157
aVshukla
p2158
aVshut
p2159
aVsigacts
p2160
aVsight
p2161
aVsigma
p2162
aVsign
p2163
aVsignal
p2164
aVsimply
p2165
aVsingh
p2166
aVsir
p2167
aVsit
p2168
aVsite
p2169
aVskirt
p2170
aVskl
p2171
aVskq0i6kzd0
p2172
aVsky
p2173
aVslack
p2174
aVslam
p2175
aVslay
p2176
aVsleep
p2177
aVslide
p2178
aVslideshow
p2179
aVslippers
p2180
aVslms
p2181
aVslogans
p2182
aVslowly
p2183
aVsmmqynyugs
p2184
aVsmoke
p2185
aVsmriti
p2186
aVsms6l0dchb
p2187
aVsnatch
p2188
aVso76tmmnko
p2189
aVsocial
p2190
aVsolely
p2191
aVsolution
p2192
aVsomber
p2193
aVson
p2194
aVsonia
p2195
aVsoon
p2196
aVsorrow
p2197
aVsorry
p2198
aVsouls
p2199
aVsound
p2200
aVsource
p2201
aVsouth
p2202
aVsouthern
p2203
aVspare
p2204
aVspazcstv0j
p2205
aVspeak
p2206
aVspeaker
p2207
aVspecial
p2208
aVspecific
p2209
aVspecifically
p2210
aVspectre
p2211
aVspeech
p2212
aVspeed
p2213
aVspeedy
p2214
aVspineless
p2215
aVspirit
p2216
aVspoil
p2217
aVsponsor
p2218
aVspot
p2219
aVspread
p2220
aVspyxxu3ysg
p2221
aVstaff
p2222
aVstalk
p2223
aVstand
p2224
aVstandard
p2225
aVstare
p2226
aVstarssoft
p2227
aVstart
p2228
aVstate
p2229
aVstatement
p2230
aVstatements
p2231
aVstation
p2232
aVstatus
p2233
aVstay
p2234
aVstep
p2235
aVstick
p2236
aVstop
p2237
aVstories
p2238
aVstory
p2239
aVstp7dcbcbj
p2240
aVstrange
p2241
aVstream
p2242
aVstreet
p2243
aVstrength
p2244
aVstrengthen
p2245
aVstrew
p2246
aVstrike
p2247
aVstring
p2248
aVstrong
p2249
aVstronger
p2250
aVstrongly
p2251
aVstruggle
p2252
aVstudents
p2253
aVstudio
p2254
aVstuti
p2255
aVsuburb
p2256
aVsucceed
p2257
aVsuccumb
p2258
aVsudyh858yu
p2259
aVsuffice
p2260
aVsuggest
p2261
aVsuitably
p2262
aVsulekha
p2263
aVsun
p2264
aVsuper
p2265
aVsupporter
p2266
aVsupporters
p2267
aVsuraram
p2268
aVsure
p2269
aVsurprise
p2270
aVsurrender
p2271
aVsurvey
p2272
aVsurvive
p2273
aVsurvivor
p2274
aVsushil
p2275
aVsushilkumar
p2276
aVsushma
p2277
aVsuspect
p2278
aVsuspicious
p2279
aVsvdwxwhaoa
p2280
aVsvfjm1xeys
p2281
aVsvw6avbqxq
p2282
aVswaraj
p2283
aVswqynzpbno
p2284
aVsxqim1jiyc
p2285
aVsyed
p2286
aVsympathisers
p2287
aVsympathy
p2288
aVsyvfddn60g
p2289
aVsz19kxm3bd
p2290
aVszeikjharh
p2291
aVszgqgvqtcj
p2292
aVszokhq4qwn
p2293
aVt0mbznssd2
p2294
aVt4jxfyiizj
p2295
aVt6vki8qblo
p2296
aVtale
p2297
aVtalk
p2298
aVtape
p2299
aVtarget
p2300
aVtarnish
p2301
aVtasuwbwzsw
p2302
aVtata
p2303
aVtbt7xln3nx
p2304
aVtcq54fgzjh
p2305
aVtduyninpte
p2306
aVtea
p2307
aVteam
p2308
aVtear
p2309
aVteglrb3isj
p2310
aVtelangana
p2311
aVtelecast
p2312
aVtelevision
p2313
aVtell
p2314
aVtelugu
p2315
aVtelugustop
p2316
aVtemplate
p2317
aVtemple
p2318
aVterribly
p2319
aVterror
p2320
aVterrorism
p2321
aVterrorist
p2322
aVterrorists
p2323
aVtest
p2324
aVtewari
p2325
aVtextbooks
p2326
aVtfziornnyo
p2327
aVtgtfqbbmuz
p2328
aVthank
p2329
aVthats
p2330
aVtheater
p2331
aVtheaters
p2332
aVtheatre
p2333
aVtheguardian
p2334
aVthehindu
p2335
aVtheories
p2336
aVtheory
p2337
aVthestar
p2338
aVthewire
p2339
aVthing
p2340
aVthings
p2341
aVthink
p2342
aVthorough
p2343
aVthoughts
p2344
aVthousands
p2345
aVthread
p2346
aVthreat
p2347
aVthrow
p2348
aVthu
p2349
aVthursday
p2350
aVtie
p2351
aVties_830870
p2352
aVtiffin
p2353
aVtighten
p2354
aVtill
p2355
aVtim
p2356
aVtime
p2357
aVtimeline
p2358
aVtimesbjp
p2359
aVtimeshyderabad
p2360
aVtimesi
p2361
aVtimesnow
p2362
aVtimesofindia
p2363
aVtiroefrzwz
p2364
aVtkxxnatf0f
p2365
aVtm7a7augei
p2366
aVtmi
p2367
aVtmqg2ibzwd
p2368
aVtoday
p2369
aVtogadia
p2370
aVtoi
p2371
aVtolerance
p2372
aVtoll
p2373
aVtomorrow
p2374
aVtonight
p2375
aVtouch
p2376
aVtough
p2377
aVtourism
p2378
aVtowe1lyupl
p2379
aVtown
p2380
aVtpavmzcxn8
p2381
aVtqhmkttuuo
p2382
aVtquult6tar
p2383
aVtraffic
p2384
aVtragedy
p2385
aVtragic
p2386
aVtrain
p2387
aVtrample
p2388
aVtreat
p2389
aVtrend
p2390
aVtribune
p2391
aVtribute
p2392
aVtrickle
p2393
aVtrouble
p2394
aVtrp
p2395
aVtrue
p2396
aVtruth
p2397
aVtruthdive
p2398
aVtrxgaabb4q
p2399
aVtry
p2400
aVttdmdb3rci
p2401
aVtuesday
p2402
aVtumblr
p2403
aVturn
p2404
aVtuw87autlw
p2405
aVtv10
p2406
aVtv5
p2407
aVtv9
p2408
aVtvpnddup1d
p2409
aVtweeples
p2410
aVtweet
p2411
aVtwhfjfh19i
p2412
aVtwice
p2413
aVtwin
p2414
aVtwitpic
p2415
aVtwitter
p2416
aVtwitterfeed
p2417
aVtwshare
p2418
aVtx27s9dltx
p2419
aVtype
p2420
aVtypical
p2421
aVtytpt15koq
p2422
aVu31xdk1wsy
p2423
aVu3s8aw9uay
p2424
aVu5hmic8sqs
p2425
aVu7jtbxqsuc
p2426
aVu87hkx93fe
p2427
aVu97i0fqauba
p2428
aVu9ksowmeyo
p2429
aVuad7ljvaq2
p2430
aVuaiidhwwod
p2431
aVubeye6bnfa
p2432
aVubuddwf52t
p2433
aVuchxf80xdh
p2434
aVufrnrgbq2r
p2435
aVugefcxn92t
p2436
aVuhoh
p2437
aVuhqnuenqes
p2438
aVui4yhhk0ib
p2439
aVujakqhynkb
p2440
aVujc
p2441
aVujfskkdatt
p2442
aVujofh51grt
p2443
aVuknxdvmzfo
p2444
aVulnk5esien
p2445
aVunconditional
p2446
aVunconfirmed
p2447
aVunderstand
p2448
aVunfortunate
p2449
aVunfortunately
p2450
aVunfrb5oref
p2451
aVunim3wezbh
p2452
aVunion
p2453
aVunite
p2454
aVunits
p2455
aVunlik
p2456
aVunlucky
p2457
aVunpunished
p2458
aVupa
p2459
aVupa2
p2460
aVupdate
p2461
aVupeydgqbqw
p2462
aVuproar
p2463
aVupset
p2464
aVur28bltsdx
p2465
aVurgent
p2466
aVurls
p2467
aVurtgzcoslv
p2468
aVurxtry9gm4
p2469
aVuse
p2470
aVushq4dbwo7t
p2471
aVutceb2gf1k
p2472
aVutm_campaign
p2473
aVutm_medium
p2474
aVutm_source
p2475
aVuttar
p2476
aVuvremmxk2c
p2477
aVuvs4imxano
p2478
aVuwcvqhawjg
p2479
aVuwpdia0ybb
p2480
aVuxcghyz8an
p2481
aVuxfhncopoy
p2482
aVuy23rgbyhw
p2483
aVuzbs0caa1z
p2484
aVuzzgsih0kh
p2485
aVv0yatqrrv2
p2486
aVv1gnmg7s5x
p2487
aVv5cp9y5hfi
p2488
aVv7rjfmo7sd
p2489
aVv8yeqn54tt
p2490
aVv9p5hzkyjo
p2491
aVvasan
p2492
aVvby5rdlmhh
p2493
aVvdqk394bzt
p2494
aVvdzxy4vlae
p2495
aVvedihkeqsb
p2496
aVvehicles
p2497
aVvek7rfujat
p2498
aVvendors
p2499
aVvenkaiah
p2500
aVvenkatadri
p2501
aVvenom
p2502
aVvenue
p2503
aVver
p2504
aVverdict
p2505
aVverma
p2506
aVvftofcctfg
p2507
aVvhrpnb3uc5
p2508
aVvi0flzui9d
p2509
aVvice
p2510
aVvictim
p2511
aVvictims
p2512
aVvideo
p2513
aVvideos
p2514
aVvideoshow
p2515
aVview
p2516
aVviewarticle
p2517
aVvijaya
p2518
aVvillage
p2519
aVvip
p2520
aVvips
p2521
aVviruses
p2522
aVvishwanath
p2523
aVvisit
p2524
aVvisuals
p2525
aVvital
p2526
aVvivdnrqcgm
p2527
aVvln4hs4s22
p2528
aVvoanews
p2529
aVvocab
p2530
aVvote
p2531
aVvow
p2532
aVvoygwy6qcb
p2533
aVvq7zmjj8fy
p2534
aVvtdru1dezv
p2535
aVvtnid
p2536
aVvtntitle
p2537
aVvulture
p2538
aVvuod5x2fct
p2539
aVvv6eilcqtu
p2540
aVvvips
p2541
aVvvmcmwzdsb
p2542
aVvwnsem52kz
p2543
aVvwpyajucv2
p2544
aVvxgjwkksfp
p2545
aVvz9zkcbfat
p2546
aVw4e0n8taaw
p2547
aVwabpgdccgj
p2548
aVwag
p2549
aVwahid
p2550
aVwahiduddin
p2551
aVwait
p2552
aVwajzclmzxx
p2553
aVwake
p2554
aVwall
p2555
aVwant
p2556
aVwar
p2557
aVwarn
p2558
aVwasey
p2559
aVwasif
p2560
aVwasn
p2561
aVwatch
p2562
aVwave
p2563
aVway
p2564
aVwcgmgg3k13
p2565
aVwcv
p2566
aVweak
p2567
aVwear
p2568
aVweek
p2569
aVweqplzlcfk
p2570
aVwespeaknews
p2571
aVwest
p2572
aVwhet
p2573
aVwhpqexql8h
p2574
aVwin
p2575
aVwind
p2576
aVwing
p2577
aVwire
p2578
aVwish
p2579
aVwitness
p2580
aVwj9kvgopxs
p2581
aVwjuxhgwtrm
p2582
aVwl3xu2nmt9
p2583
aVwlnhycerzu
p2584
aVwomen
p2585
aVwonder
p2586
aVword
p2587
aVwork
p2588
aVworkshop
p2589
aVworld
p2590
aVworldsnap
p2591
aVworse
p2592
aVwound
p2593
aVwow
p2594
aVwr4novtynr
p2595
aVwre7gaj54c
p2596
aVwrfjwgpgwt
p2597
aVwrfkbdazuz
p2598
aVwrite
p2599
aVwrolovdnbd
p2600
aVwrong
p2601
aVwsu4cobilg
p2602
aVwv4hi3gz3xe
p2603
aVwvdkig
p2604
aVwvgwfh12n8
p2605
aVww1
p2606
aVwwdhyar7xb
p2607
aVwwsl46zsne
p2608
aVwww
p2609
aVx4m9zvdchd
p2610
aVx9tyybdcwg
p2611
aVxaa3l7oo4x
p2612
aVxcpsfateal
p2613
aVxeaczavihs
p2614
aVxl22nb72no
p2615
aVxlcbfhvvpz
p2616
aVxljsnezdye
p2617
aVxmlkig2qdq
p2618
aVxn4ouvqrvl
p2619
aVxnch3cogh7
p2620
aVxnerhkcdrs
p2621
aVxokyqn651r
p2622
aVxoytit97bz
p2623
aVxrr9brgpdo
p2624
aVxs7imgcd1a
p2625
aVxzfbiqofup
p2626
aVxzvz11y0en
p2627
aVy0o3tgh7no
p2628
aVy3nqqpi7pg
p2629
aVy63rz5s9bm
p2630
aVyadagiri
p2631
aVyadav
p2632
aVyahoo
p2633
aVyakifrpeap
p2634
aVyamprzgbin
p2635
aVyang
p2636
aVyashoda
p2637
aVyasin
p2638
aVyboldf4prm
p2639
aVybqeyioh5m
p2640
aVyc6aik0tua
p2641
aVycloqkx5qh
p2642
aVyd9bixc7e0
p2643
aVydbkhoskjh
p2644
aVyear
p2645
aVyears
p2646
aVyellow
p2647
aVyellowpages
p2648
aVyes
p2649
aVyesterday
p2650
aVyhxpwzpjie
p2651
aVykgksdvefy
p2652
aVykzkghno47
p2653
aVymgdft7vdn
p2654
aVyoawujbmxe
p2655
aVyoung
p2656
aVyoungest
p2657
aVyoungster
p2658
aVyouth
p2659
aVyoutu
p2660
aVyoutube
p2661
aVyoutube_gdata_player
p2662
aVyp0ifgnf4v
p2663
aVyrvjakx8ab
p2664
aVys5jerkqjr
p2665
aVyssqtq2ihh
p2666
aVytja5jycpf
p2667
aVytnjcr3bdp
p2668
aVytytxxowat
p2669
aVyuqtge95ab
p2670
aVywpv8eprtl
p2671
aVyzruzpy3xo
p2672
aVz1e30vktmt
p2673
aVz207ni6ktt
p2674
aVz33w2kyctn
p2675
aVz3afebwgya
p2676
aVzdkzhuy1ni
p2677
aVzduvtqfpg5
p2678
aVze2sgivdrr
p2679
aVzee
p2680
aVzeenews
p2681
aVzero
p2682
aVzfua7a9bfq
p2683
aVzfv7pitykx
p2684
aVzg5idqdln3
p2685
aVzgxtrvq5re
p2686
aVzhfvfc9wpc
p2687
aVzkcjf8ldep
p2688
aVzmsb0wuxwh
p2689
aVzp9deoovfe
p2690
aVzpaye6fl2r
p2691
aVzqeeg3eafz
p2692
aVzsbu7w6a0t
p2693
aVzuat49x0vf
p2694
aVzup7sn
p2695
aVzuq4g9rog5
p2696
aVzvgxkuean5
p2697
aVzwkbaogwxv
p2698
aVzyjq4zwbke
p2699
aVzywd8f4sgw
p2700
a.